                              1 ;--------------------------------------------------------
                              2 ; File Created by SDCC : FreeWare ANSI-C Compiler
                              3 ; Version 2.2.1 Tue Jan 14 20:46:59 2020
                              4 
                              5 ;--------------------------------------------------------
                              6 	.module lcc43320
                              7 	
                              8 ;--------------------------------------------------------
                              9 ; Public variables in this module
                             10 ;--------------------------------------------------------
                             11 	.globl _main
                             12 	.globl _movePlayer
                             13 	.globl _keyboard
                             14 	.globl _scroll_sprite
                             15 	.globl _move_sprite
                             16 	.globl _set_sprite_tile
                             17 	.globl _set_sprite_data
                             18 	.globl _joypad
                             19 	.globl _delay
                             20 	.globl _gameSpeed
                             21 	.globl _TilePlayer
                             22 	.globl _movePlayer
                             23 	.globl _keyboard
                             24 	.globl _SCREEN_HEIGHT
                             25 	.globl _SCREEN_WIDTH
                             26 	.globl _main
                             27 ;--------------------------------------------------------
                             28 ; Externals used
                             29 ;--------------------------------------------------------
                             30 	.globl _IE_REG
                             31 	.globl _SVBK_REG
                             32 	.globl _OCPD_REG
                             33 	.globl _OCPS_REG
                             34 	.globl _BCPD_REG
                             35 	.globl _BCPS_REG
                             36 	.globl _RP_REG
                             37 	.globl _HDMA5_REG
                             38 	.globl _HDMA4_REG
                             39 	.globl _HDMA3_REG
                             40 	.globl _HDMA2_REG
                             41 	.globl _HDMA1_REG
                             42 	.globl _VBK_REG
                             43 	.globl _KEY1_REG
                             44 	.globl _WX_REG
                             45 	.globl _WY_REG
                             46 	.globl _OBP1_REG
                             47 	.globl _OBP0_REG
                             48 	.globl _BGP_REG
                             49 	.globl _DMA_REG
                             50 	.globl _LYC_REG
                             51 	.globl _LY_REG
                             52 	.globl _SCX_REG
                             53 	.globl _SCY_REG
                             54 	.globl _STAT_REG
                             55 	.globl _LCDC_REG
                             56 	.globl _NR52_REG
                             57 	.globl _NR51_REG
                             58 	.globl _NR50_REG
                             59 	.globl _NR44_REG
                             60 	.globl _NR43_REG
                             61 	.globl _NR42_REG
                             62 	.globl _NR41_REG
                             63 	.globl _NR34_REG
                             64 	.globl _NR33_REG
                             65 	.globl _NR32_REG
                             66 	.globl _NR31_REG
                             67 	.globl _NR30_REG
                             68 	.globl _NR24_REG
                             69 	.globl _NR23_REG
                             70 	.globl _NR22_REG
                             71 	.globl _NR21_REG
                             72 	.globl _NR14_REG
                             73 	.globl _NR13_REG
                             74 	.globl _NR12_REG
                             75 	.globl _NR11_REG
                             76 	.globl _NR10_REG
                             77 	.globl _IF_REG
                             78 	.globl _TAC_REG
                             79 	.globl _TMA_REG
                             80 	.globl _TIMA_REG
                             81 	.globl _DIV_REG
                             82 	.globl _SC_REG
                             83 	.globl _SB_REG
                             84 	.globl _P1_REG
                             85 	.globl __io_out
                             86 	.globl __io_in
                             87 	.globl __io_status
                             88 	.globl _sys_time
                             89 	.globl __cpu
                             90 ;--------------------------------------------------------
                             91 ; special function registers
                             92 ;--------------------------------------------------------
                             93 ;--------------------------------------------------------
                             94 ; special function bits 
                             95 ;--------------------------------------------------------
                             96 ;--------------------------------------------------------
                             97 ; internal ram data
                             98 ;--------------------------------------------------------
                             99 	.area _DATA
   0000                     100 _TilePlayer::
   0000                     101 	.ds 48
   0030                     102 _gameSpeed::
   0030                     103 	.ds 2
                            104 ;--------------------------------------------------------
                            105 ; overlayable items in internal ram 
                            106 ;--------------------------------------------------------
                            107 	.area _OVERLAY
                            108 ;--------------------------------------------------------
                            109 ; indirectly addressable internal ram data
                            110 ;--------------------------------------------------------
                            111 	.area _ISEG
                            112 ;--------------------------------------------------------
                            113 ; bit data
                            114 ;--------------------------------------------------------
                            115 	.area _BSEG
                            116 ;--------------------------------------------------------
                            117 ; external ram data
                            118 ;--------------------------------------------------------
                            119 	.area _XSEG
                            120 ;--------------------------------------------------------
                            121 ; global & static initialisations
                            122 ;--------------------------------------------------------
                            123 	.area _GSINIT
                            124 	.area _GSFINAL
                            125 	.area _GSINIT
                            126 ;	main.c 50
                            127 ; genAssign (pointer)
   0000 11 00 00            128 	ld	de,#_TilePlayer + 0
   0003 3E 7F               129 	ld	a,#0x7F
   0005 12                  130 	ld	(de),a
                            131 ; genPlus
                            132 ; genPlusIncr
   0006 11 01 00            133 	ld	de,#_TilePlayer + 0 + 1
                            134 ; genAssign (pointer)
   0009 3E 7F               135 	ld	a,#0x7F
   000B 12                  136 	ld	(de),a
                            137 ; genPlus
                            138 ; genPlusIncr
   000C 11 02 00            139 	ld	de,#_TilePlayer + 0 + 2
                            140 ; genAssign (pointer)
   000F 3E 80               141 	ld	a,#0x80
   0011 12                  142 	ld	(de),a
                            143 ; genPlus
                            144 ; genPlusIncr
   0012 11 03 00            145 	ld	de,#_TilePlayer + 0 + 3
                            146 ; genAssign (pointer)
   0015 3E FF               147 	ld	a,#0xFF
   0017 12                  148 	ld	(de),a
                            149 ; genPlus
                            150 ; genPlusIncr
   0018 11 04 00            151 	ld	de,#_TilePlayer + 0 + 4
                            152 ; genAssign (pointer)
   001B 3E 80               153 	ld	a,#0x80
   001D 12                  154 	ld	(de),a
                            155 ; genPlus
                            156 ; genPlusIncr
   001E 11 05 00            157 	ld	de,#_TilePlayer + 0 + 5
                            158 ; genAssign (pointer)
   0021 3E FF               159 	ld	a,#0xFF
   0023 12                  160 	ld	(de),a
                            161 ; genPlus
                            162 ; genPlusIncr
   0024 11 06 00            163 	ld	de,#_TilePlayer + 0 + 6
                            164 ; genAssign (pointer)
   0027 3E 80               165 	ld	a,#0x80
   0029 12                  166 	ld	(de),a
                            167 ; genPlus
                            168 ; genPlusIncr
   002A 11 07 00            169 	ld	de,#_TilePlayer + 0 + 7
                            170 ; genAssign (pointer)
   002D 3E FF               171 	ld	a,#0xFF
   002F 12                  172 	ld	(de),a
                            173 ; genPlus
                            174 ; genPlusIncr
   0030 11 08 00            175 	ld	de,#_TilePlayer + 0 + 8
                            176 ; genAssign (pointer)
   0033 3E 80               177 	ld	a,#0x80
   0035 12                  178 	ld	(de),a
                            179 ; genPlus
                            180 ; genPlusIncr
   0036 11 09 00            181 	ld	de,#_TilePlayer + 0 + 9
                            182 ; genAssign (pointer)
   0039 3E FF               183 	ld	a,#0xFF
   003B 12                  184 	ld	(de),a
                            185 ; genPlus
                            186 ; genPlusIncr
   003C 11 0A 00            187 	ld	de,#_TilePlayer + 0 + 10
                            188 ; genAssign (pointer)
   003F 3E 80               189 	ld	a,#0x80
   0041 12                  190 	ld	(de),a
                            191 ; genPlus
                            192 ; genPlusIncr
   0042 11 0B 00            193 	ld	de,#_TilePlayer + 0 + 11
                            194 ; genAssign (pointer)
   0045 3E FF               195 	ld	a,#0xFF
   0047 12                  196 	ld	(de),a
                            197 ; genPlus
                            198 ; genPlusIncr
   0048 11 0C 00            199 	ld	de,#_TilePlayer + 0 + 12
                            200 ; genAssign (pointer)
   004B 3E 80               201 	ld	a,#0x80
   004D 12                  202 	ld	(de),a
                            203 ; genPlus
                            204 ; genPlusIncr
   004E 11 0D 00            205 	ld	de,#_TilePlayer + 0 + 13
                            206 ; genAssign (pointer)
   0051 3E FF               207 	ld	a,#0xFF
   0053 12                  208 	ld	(de),a
                            209 ; genPlus
                            210 ; genPlusIncr
   0054 11 0E 00            211 	ld	de,#_TilePlayer + 0 + 14
                            212 ; genAssign (pointer)
   0057 3E 7F               213 	ld	a,#0x7F
   0059 12                  214 	ld	(de),a
                            215 ; genPlus
                            216 ; genPlusIncr
   005A 11 0F 00            217 	ld	de,#_TilePlayer + 0 + 15
                            218 ; genAssign (pointer)
   005D 3E 7F               219 	ld	a,#0x7F
   005F 12                  220 	ld	(de),a
                            221 ; genPlus
                            222 ; genPlusIncr
   0060 11 10 00            223 	ld	de,#_TilePlayer + 0 + 16
                            224 ; genAssign (pointer)
   0063 3E FF               225 	ld	a,#0xFF
   0065 12                  226 	ld	(de),a
                            227 ; genPlus
                            228 ; genPlusIncr
   0066 11 11 00            229 	ld	de,#_TilePlayer + 0 + 17
                            230 ; genAssign (pointer)
   0069 3E FF               231 	ld	a,#0xFF
   006B 12                  232 	ld	(de),a
                            233 ; genPlus
                            234 ; genPlusIncr
   006C 11 12 00            235 	ld	de,#_TilePlayer + 0 + 18
                            236 ; genAssign (pointer)
   006F 3E 00               237 	ld	a,#0x00
   0071 12                  238 	ld	(de),a
                            239 ; genPlus
                            240 ; genPlusIncr
   0072 11 13 00            241 	ld	de,#_TilePlayer + 0 + 19
                            242 ; genAssign (pointer)
   0075 3E FF               243 	ld	a,#0xFF
   0077 12                  244 	ld	(de),a
                            245 ; genPlus
                            246 ; genPlusIncr
   0078 11 14 00            247 	ld	de,#_TilePlayer + 0 + 20
                            248 ; genAssign (pointer)
   007B 3E 00               249 	ld	a,#0x00
   007D 12                  250 	ld	(de),a
                            251 ; genPlus
                            252 ; genPlusIncr
   007E 11 15 00            253 	ld	de,#_TilePlayer + 0 + 21
                            254 ; genAssign (pointer)
   0081 3E FF               255 	ld	a,#0xFF
   0083 12                  256 	ld	(de),a
                            257 ; genPlus
                            258 ; genPlusIncr
   0084 11 16 00            259 	ld	de,#_TilePlayer + 0 + 22
                            260 ; genAssign (pointer)
   0087 3E 00               261 	ld	a,#0x00
   0089 12                  262 	ld	(de),a
                            263 ; genPlus
                            264 ; genPlusIncr
   008A 11 17 00            265 	ld	de,#_TilePlayer + 0 + 23
                            266 ; genAssign (pointer)
   008D 3E FF               267 	ld	a,#0xFF
   008F 12                  268 	ld	(de),a
                            269 ; genPlus
                            270 ; genPlusIncr
   0090 11 18 00            271 	ld	de,#_TilePlayer + 0 + 24
                            272 ; genAssign (pointer)
   0093 3E 00               273 	ld	a,#0x00
   0095 12                  274 	ld	(de),a
                            275 ; genPlus
                            276 ; genPlusIncr
   0096 11 19 00            277 	ld	de,#_TilePlayer + 0 + 25
                            278 ; genAssign (pointer)
   0099 3E FF               279 	ld	a,#0xFF
   009B 12                  280 	ld	(de),a
                            281 ; genPlus
                            282 ; genPlusIncr
   009C 11 1A 00            283 	ld	de,#_TilePlayer + 0 + 26
                            284 ; genAssign (pointer)
   009F 3E 00               285 	ld	a,#0x00
   00A1 12                  286 	ld	(de),a
                            287 ; genPlus
                            288 ; genPlusIncr
   00A2 11 1B 00            289 	ld	de,#_TilePlayer + 0 + 27
                            290 ; genAssign (pointer)
   00A5 3E FF               291 	ld	a,#0xFF
   00A7 12                  292 	ld	(de),a
                            293 ; genPlus
                            294 ; genPlusIncr
   00A8 11 1C 00            295 	ld	de,#_TilePlayer + 0 + 28
                            296 ; genAssign (pointer)
   00AB 3E 00               297 	ld	a,#0x00
   00AD 12                  298 	ld	(de),a
                            299 ; genPlus
                            300 ; genPlusIncr
   00AE 11 1D 00            301 	ld	de,#_TilePlayer + 0 + 29
                            302 ; genAssign (pointer)
   00B1 3E FF               303 	ld	a,#0xFF
   00B3 12                  304 	ld	(de),a
                            305 ; genPlus
                            306 ; genPlusIncr
   00B4 11 1E 00            307 	ld	de,#_TilePlayer + 0 + 30
                            308 ; genAssign (pointer)
   00B7 3E FF               309 	ld	a,#0xFF
   00B9 12                  310 	ld	(de),a
                            311 ; genPlus
                            312 ; genPlusIncr
   00BA 11 1F 00            313 	ld	de,#_TilePlayer + 0 + 31
                            314 ; genAssign (pointer)
   00BD 3E FF               315 	ld	a,#0xFF
   00BF 12                  316 	ld	(de),a
                            317 ; genPlus
                            318 ; genPlusIncr
   00C0 11 20 00            319 	ld	de,#_TilePlayer + 0 + 32
                            320 ; genAssign (pointer)
   00C3 3E FE               321 	ld	a,#0xFE
   00C5 12                  322 	ld	(de),a
                            323 ; genPlus
                            324 ; genPlusIncr
   00C6 11 21 00            325 	ld	de,#_TilePlayer + 0 + 33
                            326 ; genAssign (pointer)
   00C9 3E FE               327 	ld	a,#0xFE
   00CB 12                  328 	ld	(de),a
                            329 ; genPlus
                            330 ; genPlusIncr
   00CC 11 22 00            331 	ld	de,#_TilePlayer + 0 + 34
                            332 ; genAssign (pointer)
   00CF 3E 01               333 	ld	a,#0x01
   00D1 12                  334 	ld	(de),a
                            335 ; genPlus
                            336 ; genPlusIncr
   00D2 11 23 00            337 	ld	de,#_TilePlayer + 0 + 35
                            338 ; genAssign (pointer)
   00D5 3E FF               339 	ld	a,#0xFF
   00D7 12                  340 	ld	(de),a
                            341 ; genPlus
                            342 ; genPlusIncr
   00D8 11 24 00            343 	ld	de,#_TilePlayer + 0 + 36
                            344 ; genAssign (pointer)
   00DB 3E 01               345 	ld	a,#0x01
   00DD 12                  346 	ld	(de),a
                            347 ; genPlus
                            348 ; genPlusIncr
   00DE 11 25 00            349 	ld	de,#_TilePlayer + 0 + 37
                            350 ; genAssign (pointer)
   00E1 3E FF               351 	ld	a,#0xFF
   00E3 12                  352 	ld	(de),a
                            353 ; genPlus
                            354 ; genPlusIncr
   00E4 11 26 00            355 	ld	de,#_TilePlayer + 0 + 38
                            356 ; genAssign (pointer)
   00E7 3E 01               357 	ld	a,#0x01
   00E9 12                  358 	ld	(de),a
                            359 ; genPlus
                            360 ; genPlusIncr
   00EA 11 27 00            361 	ld	de,#_TilePlayer + 0 + 39
                            362 ; genAssign (pointer)
   00ED 3E FF               363 	ld	a,#0xFF
   00EF 12                  364 	ld	(de),a
                            365 ; genPlus
                            366 ; genPlusIncr
   00F0 11 28 00            367 	ld	de,#_TilePlayer + 0 + 40
                            368 ; genAssign (pointer)
   00F3 3E 01               369 	ld	a,#0x01
   00F5 12                  370 	ld	(de),a
                            371 ; genPlus
                            372 ; genPlusIncr
   00F6 11 29 00            373 	ld	de,#_TilePlayer + 0 + 41
                            374 ; genAssign (pointer)
   00F9 3E FF               375 	ld	a,#0xFF
   00FB 12                  376 	ld	(de),a
                            377 ; genPlus
                            378 ; genPlusIncr
   00FC 11 2A 00            379 	ld	de,#_TilePlayer + 0 + 42
                            380 ; genAssign (pointer)
   00FF 3E 01               381 	ld	a,#0x01
   0101 12                  382 	ld	(de),a
                            383 ; genPlus
                            384 ; genPlusIncr
   0102 11 2B 00            385 	ld	de,#_TilePlayer + 0 + 43
                            386 ; genAssign (pointer)
   0105 3E FF               387 	ld	a,#0xFF
   0107 12                  388 	ld	(de),a
                            389 ; genPlus
                            390 ; genPlusIncr
   0108 11 2C 00            391 	ld	de,#_TilePlayer + 0 + 44
                            392 ; genAssign (pointer)
   010B 3E 01               393 	ld	a,#0x01
   010D 12                  394 	ld	(de),a
                            395 ; genPlus
                            396 ; genPlusIncr
   010E 11 2D 00            397 	ld	de,#_TilePlayer + 0 + 45
                            398 ; genAssign (pointer)
   0111 3E FF               399 	ld	a,#0xFF
   0113 12                  400 	ld	(de),a
                            401 ; genPlus
                            402 ; genPlusIncr
   0114 11 2E 00            403 	ld	de,#_TilePlayer + 0 + 46
                            404 ; genAssign (pointer)
   0117 3E FE               405 	ld	a,#0xFE
   0119 12                  406 	ld	(de),a
                            407 ; genPlus
                            408 ; genPlusIncr
   011A 11 2F 00            409 	ld	de,#_TilePlayer + 0 + 47
                            410 ; genAssign (pointer)
   011D 3E FE               411 	ld	a,#0xFE
   011F 12                  412 	ld	(de),a
                            413 ;	main.c 50
                            414 ; genAssign
                            415 ; AOP_HL for _gameSpeed
   0120 21 30 00            416 	ld	hl,#_gameSpeed + 0
   0123 36 00               417 	ld	(hl),#0x00
   0125 23                  418 	inc	hl
   0126 36 00               419 	ld	(hl),#0x00
                            420 ;--------------------------------------------------------
                            421 ; Home
                            422 ;--------------------------------------------------------
                            423 	.area _HOME
                            424 	.area _CODE
                            425 ;--------------------------------------------------------
                            426 ; code
                            427 ;--------------------------------------------------------
                            428 	.area _CODE
                            429 ;	main.c 8
                            430 ; genLabel
                            431 ; genFunction
                            432 ;	---------------------------------
                            433 ; Function main
                            434 ; ---------------------------------
   0000                     435 ___main_start:
   0000                     436 _main:
   0000 C5                  437 	push	bc
   0001 E8 FB               438 	lda	sp,-5(sp)
                            439 ;	main.c 11
                            440 ; genIpush
   0003 21 00 00            441 	ld	hl,#_TilePlayer + 0
   0006 E5                  442 	push	hl
                            443 ; genIpush
   0007 3E 03               444 	ld	a,#0x03
   0009 F5                  445 	push	af
   000A 33                  446 	inc	sp
                            447 ; genIpush
   000B 3E 00               448 	ld	a,#0x00
   000D F5                  449 	push	af
   000E 33                  450 	inc	sp
                            451 ; genCall
   000F CD 00 00            452 	call	_set_sprite_data
   0012 E8 04               453 	lda	sp,4(sp)
                            454 ;	main.c 12
                            455 ; genIpush
   0014 3E 00               456 	ld	a,#0x00
   0016 F5                  457 	push	af
   0017 33                  458 	inc	sp
                            459 ; genIpush
   0018 3E 00               460 	ld	a,#0x00
   001A F5                  461 	push	af
   001B 33                  462 	inc	sp
                            463 ; genCall
   001C CD 00 00            464 	call	_set_sprite_tile
   001F E8 02               465 	lda	sp,2(sp)
                            466 ;	main.c 13
                            467 ; genIpush
   0021 3E 01               468 	ld	a,#0x01
   0023 F5                  469 	push	af
   0024 33                  470 	inc	sp
                            471 ; genIpush
   0025 3E 01               472 	ld	a,#0x01
   0027 F5                  473 	push	af
   0028 33                  474 	inc	sp
                            475 ; genCall
   0029 CD 00 00            476 	call	_set_sprite_tile
   002C E8 02               477 	lda	sp,2(sp)
                            478 ;	main.c 14
                            479 ; genIpush
   002E 3E 02               480 	ld	a,#0x02
   0030 F5                  481 	push	af
   0031 33                  482 	inc	sp
                            483 ; genIpush
   0032 3E 02               484 	ld	a,#0x02
   0034 F5                  485 	push	af
   0035 33                  486 	inc	sp
                            487 ; genCall
   0036 CD 00 00            488 	call	_set_sprite_tile
   0039 E8 02               489 	lda	sp,2(sp)
                            490 ;	main.c 16
                            491 ; genAssign
                            492 ; AOP_HL for _SCREEN_HEIGHT
   003B 21 E1 00            493 	ld	hl,#_SCREEN_HEIGHT + 0
   003E 4E                  494 	ld	c,(hl)
   003F 23                  495 	inc	hl
   0040 46                  496 	ld	b,(hl)
                            497 ; genPlus
                            498 ; genPlusIncr
                            499 ;	genPlusIncr failed
   0041 79                  500 	ld	a,c
   0042 C6 08               501 	add	a,#0x08
   0044 4F                  502 	ld	c,a
   0045 78                  503 	ld	a,b
   0046 CE 00               504 	adc	a,#0x00
   0048 47                  505 	ld	b,a
                            506 ; genCast
                            507 ; AOP_STK for _main_sloc0_1_0
   0049 F8 04               508 	lda	hl,4(sp)
   004B 71                  509 	ld	(hl),c
                            510 ; genAssign
                            511 ; AOP_HL for _SCREEN_WIDTH
                            512 ; AOP_STK for _main_sloc1_1_0
   004C 21 DF 00            513 	ld	hl,#_SCREEN_WIDTH + 0
   004F 2A                  514 	ld	a,(hl+)
   0050 5E                  515 	ld	e,(hl)
   0051 F8 02               516 	lda	hl,2(sp)
   0053 22                  517 	ld	(hl+),a
   0054 73                  518 	ld	(hl),e
                            519 ; genRightShift
                            520 ; AOP_STK for _main_sloc1_1_0
                            521 ; shift right 	result 2, left 2
   0055 B7                  522 	or	a,a
   0056 CB 1E               523 	rr	(hl)
   0058 2B                  524 	dec	hl
   0059 CB 1E               525 	rr	(hl)
                            526 ; genMinus
                            527 ; AOP_STK for _main_sloc1_1_0
                            528 ; AOP_STK for _main_sloc2_1_0
   005B 5E                  529 	ld	e,(hl)
   005C 23                  530 	inc	hl
   005D 56                  531 	ld	d,(hl)
   005E 21 08 00            532 	ld	hl,#0x0008
   0061 7B                  533 	ld	a,e
   0062 95                  534 	sub	a,l
   0063 5F                  535 	ld	e,a
   0064 7A                  536 	ld	a,d
   0065 9C                  537 	sbc	a,h
   0066 F8 01               538 	lda	hl,1(sp)
   0068 77                  539 	ld	(hl),a
   0069 2B                  540 	dec	hl
   006A 73                  541 	ld	(hl),e
                            542 ; genCast
                            543 ; AOP_STK for _main_sloc2_1_0
   006B 4E                  544 	ld	c,(hl)
                            545 ; genIpush
                            546 ; AOP_STK for _main_sloc0_1_0
   006C F8 04               547 	lda	hl,4(sp)
   006E 7E                  548 	ld	a,(hl)
   006F F5                  549 	push	af
   0070 33                  550 	inc	sp
                            551 ; genIpush
   0071 79                  552 	ld	a,c
   0072 F5                  553 	push	af
   0073 33                  554 	inc	sp
                            555 ; genIpush
   0074 3E 00               556 	ld	a,#0x00
   0076 F5                  557 	push	af
   0077 33                  558 	inc	sp
                            559 ; genCall
   0078 CD 00 00            560 	call	_move_sprite
   007B E8 03               561 	lda	sp,3(sp)
                            562 ;	main.c 17
                            563 ; genCast
                            564 ; AOP_STK for _main_sloc1_1_0
   007D F8 02               565 	lda	hl,2(sp)
   007F 4E                  566 	ld	c,(hl)
                            567 ; genIpush
                            568 ; AOP_STK for _main_sloc0_1_0
   0080 23                  569 	inc	hl
   0081 23                  570 	inc	hl
   0082 7E                  571 	ld	a,(hl)
   0083 F5                  572 	push	af
   0084 33                  573 	inc	sp
                            574 ; genIpush
   0085 79                  575 	ld	a,c
   0086 F5                  576 	push	af
   0087 33                  577 	inc	sp
                            578 ; genIpush
   0088 3E 01               579 	ld	a,#0x01
   008A F5                  580 	push	af
   008B 33                  581 	inc	sp
                            582 ; genCall
   008C CD 00 00            583 	call	_move_sprite
   008F E8 03               584 	lda	sp,3(sp)
                            585 ;	main.c 18
                            586 ; genPlus
                            587 ; AOP_STK for _main_sloc1_1_0
                            588 ; AOP_STK for _main_sloc2_1_0
                            589 ; genPlusIncr
                            590 ;	genPlusIncr failed
   0091 F8 02               591 	lda	hl,2(sp)
   0093 5E                  592 	ld	e,(hl)
   0094 23                  593 	inc	hl
   0095 56                  594 	ld	d,(hl)
   0096 21 08 00            595 	ld	hl,#0x0008
   0099 19                  596 	add	hl,de
   009A 7D                  597 	ld	a,l
   009B 54                  598 	ld	d,h
   009C F8 00               599 	lda	hl,0(sp)
   009E 22                  600 	ld	(hl+),a
   009F 72                  601 	ld	(hl),d
                            602 ; genCast
                            603 ; AOP_STK for _main_sloc2_1_0
   00A0 2B                  604 	dec	hl
   00A1 4E                  605 	ld	c,(hl)
                            606 ; genIpush
                            607 ; AOP_STK for _main_sloc0_1_0
   00A2 F8 04               608 	lda	hl,4(sp)
   00A4 7E                  609 	ld	a,(hl)
   00A5 F5                  610 	push	af
   00A6 33                  611 	inc	sp
                            612 ; genIpush
   00A7 79                  613 	ld	a,c
   00A8 F5                  614 	push	af
   00A9 33                  615 	inc	sp
                            616 ; genIpush
   00AA 3E 02               617 	ld	a,#0x02
   00AC F5                  618 	push	af
   00AD 33                  619 	inc	sp
                            620 ; genCall
   00AE CD 00 00            621 	call	_move_sprite
   00B1 E8 03               622 	lda	sp,3(sp)
                            623 ;	main.c 20
                            624 ; genOr
                            625 ; AOP_SFR for _LCDC_REG
                            626 ; Type res[4] = l[4]&r[1]
                            627 ; Size res[1] = l[1]&r[1]
   00B3 F0 00               628 	ldh	a,(_LCDC_REG+0) ; x
   00B5 F6 02               629 	or	a,#0x02
   00B7 E0 00               630 	ldh	(_LCDC_REG+0),a
                            631 ;	main.c 22
                            632 ; genLabel
   00B9                     633 00102$:
                            634 ;	main.c 24
                            635 ; genCall
   00B9 CD E3 00            636 	call	_keyboard
                            637 ;	main.c 25
                            638 ; genMinus
                            639 ; AOP_HL for _gameSpeed
                            640 ; AOP_STK for _main_sloc2_1_0
   00BC 11 0A 00            641 	ld	de,#0x000A
   00BF 21 30 00            642 	ld	hl,#_gameSpeed + 0
   00C2 2A                  643 	ld	a,(hl+)
   00C3 66                  644 	ld	h,(hl)
   00C4 6F                  645 	ld	l,a
   00C5 7B                  646 	ld	a,e
   00C6 95                  647 	sub	a,l
   00C7 5F                  648 	ld	e,a
   00C8 7A                  649 	ld	a,d
   00C9 9C                  650 	sbc	a,h
   00CA F8 01               651 	lda	hl,1(sp)
   00CC 77                  652 	ld	(hl),a
   00CD 2B                  653 	dec	hl
   00CE 73                  654 	ld	(hl),e
                            655 ; genIpush
                            656 ; AOP_STK for _main_sloc2_1_0
   00CF 2A                  657 	ld	a,(hl+)
   00D0 66                  658 	ld	h,(hl)
   00D1 6F                  659 	ld	l,a
   00D2 E5                  660 	push	hl
                            661 ; genCall
   00D3 CD 00 00            662 	call	_delay
   00D6 E8 02               663 	lda	sp,2(sp)
                            664 ; genGoto
   00D8 C3 B9 00            665 	jp	00102$
                            666 ; genLabel
   00DB                     667 00104$:
                            668 ; genEndFunction
   00DB E8 05               669 	lda	sp,5(sp)
   00DD C1                  670 	pop	bc
   00DE C9                  671 	ret
   00DF                     672 ___main_end:
   00DF                     673 _SCREEN_WIDTH:
   00DF A0 00               674 	.dw #0x00A0
   00E1                     675 _SCREEN_HEIGHT:
   00E1 90 00               676 	.dw #0x0090
                            677 ;	main.c 29
                            678 ; genLabel
                            679 ; genFunction
                            680 ;	---------------------------------
                            681 ; Function keyboard
                            682 ; ---------------------------------
   00E3                     683 ___keyboard_start:
   00E3                     684 _keyboard:
   00E3 C5                  685 	push	bc
                            686 	
                            687 ;	main.c 31
                            688 ; genCall
   00E4 CD 00 00            689 	call	_joypad
   00E7 4B                  690 	ld	c,e
                            691 ; genCmpEq
   00E8 79                  692 	ld	a,c ; 2
   00E9 FE 01               693 	cp	a,#0x01
                            694 ; Rule 5
   00EB CA 05 01            695 	jp	z,00102$
   00EE                     696 00109$:
                            697 ; genCmpEq
   00EE 79                  698 	ld	a,c ; 2
   00EF FE 02               699 	cp	a,#0x02
   00F1 C2 F6 00            700 	jp	nz,00110$
   00F4 18 03               701 	jr	00111$
   00F6                     702 00110$:
   00F6 C3 0E 01            703 	jp	00105$
   00F9                     704 00111$:
                            705 ;	main.c 34
                            706 ; genIpush
   00F9 21 FF FF            707 	ld	hl,#0xFFFFFFFF
   00FC E5                  708 	push	hl
                            709 ; genCall
   00FD CD 10 01            710 	call	_movePlayer
   0100 E8 02               711 	lda	sp,2(sp)
                            712 ;	main.c 35
                            713 ; genGoto
   0102 C3 0E 01            714 	jp	00105$
                            715 ;	main.c 37
                            716 ; genLabel
   0105                     717 00102$:
                            718 ; genIpush
   0105 21 01 00            719 	ld	hl,#0x0001
   0108 E5                  720 	push	hl
                            721 ; genCall
   0109 CD 10 01            722 	call	_movePlayer
   010C E8 02               723 	lda	sp,2(sp)
                            724 ;	main.c 41
                            725 ; genLabel
   010E                     726 00105$:
                            727 ; genEndFunction
                            728 	
   010E C1                  729 	pop	bc
   010F C9                  730 	ret
   0110                     731 ___keyboard_end:
                            732 ;	main.c 44
                            733 ; genLabel
                            734 ; genFunction
                            735 ;	---------------------------------
                            736 ; Function movePlayer
                            737 ; ---------------------------------
   0110                     738 ___movePlayer_start:
   0110                     739 _movePlayer:
   0110 C5                  740 	push	bc
                            741 	
                            742 ;	main.c 46
                            743 ; genCast
                            744 ; AOP_STK for 
   0111 F8 04               745 	lda	hl,4(sp)
   0113 4E                  746 	ld	c,(hl)
                            747 ; genIpush
   0114 3E 00               748 	ld	a,#0x00
   0116 F5                  749 	push	af
   0117 33                  750 	inc	sp
                            751 ; genIpush
   0118 79                  752 	ld	a,c
   0119 F5                  753 	push	af
   011A 33                  754 	inc	sp
                            755 ; genIpush
   011B 3E 00               756 	ld	a,#0x00
   011D F5                  757 	push	af
   011E 33                  758 	inc	sp
                            759 ; genCall
   011F CD 00 00            760 	call	_scroll_sprite
   0122 E8 03               761 	lda	sp,3(sp)
                            762 ;	main.c 47
                            763 ; genIpush
   0124 3E 00               764 	ld	a,#0x00
   0126 F5                  765 	push	af
   0127 33                  766 	inc	sp
                            767 ; genIpush
   0128 79                  768 	ld	a,c
   0129 F5                  769 	push	af
   012A 33                  770 	inc	sp
                            771 ; genIpush
   012B 3E 01               772 	ld	a,#0x01
   012D F5                  773 	push	af
   012E 33                  774 	inc	sp
                            775 ; genCall
   012F CD 00 00            776 	call	_scroll_sprite
   0132 E8 03               777 	lda	sp,3(sp)
                            778 ;	main.c 48
                            779 ; genIpush
   0134 3E 00               780 	ld	a,#0x00
   0136 F5                  781 	push	af
   0137 33                  782 	inc	sp
                            783 ; genIpush
   0138 79                  784 	ld	a,c
   0139 F5                  785 	push	af
   013A 33                  786 	inc	sp
                            787 ; genIpush
   013B 3E 02               788 	ld	a,#0x02
   013D F5                  789 	push	af
   013E 33                  790 	inc	sp
                            791 ; genCall
   013F CD 00 00            792 	call	_scroll_sprite
   0142 E8 03               793 	lda	sp,3(sp)
                            794 ; genLabel
   0144                     795 00101$:
                            796 ; genEndFunction
                            797 	
   0144 C1                  798 	pop	bc
   0145 C9                  799 	ret
   0146                     800 ___movePlayer_end:
                            801 	.area _CODE
ASxxxx Assembler V01.75  (GameBoy Z80-like CPU), page 1.

Symbol Table

    _BCPD_REG                          **** GX
    _BCPS_REG                          **** GX
    _BGP_REG                           **** GX
    _DIV_REG                           **** GX
    _DMA_REG                           **** GX
    _HDMA1_REG                         **** GX
    _HDMA2_REG                         **** GX
    _HDMA3_REG                         **** GX
    _HDMA4_REG                         **** GX
    _HDMA5_REG                         **** GX
    _IE_REG                            **** GX
    _IF_REG                            **** GX
    _KEY1_REG                          **** GX
    _LCDC_REG                          **** GX
    _LYC_REG                           **** GX
    _LY_REG                            **** GX
    _NR10_REG                          **** GX
    _NR11_REG                          **** GX
    _NR12_REG                          **** GX
    _NR13_REG                          **** GX
    _NR14_REG                          **** GX
    _NR21_REG                          **** GX
    _NR22_REG                          **** GX
    _NR23_REG                          **** GX
    _NR24_REG                          **** GX
    _NR30_REG                          **** GX
    _NR31_REG                          **** GX
    _NR32_REG                          **** GX
    _NR33_REG                          **** GX
    _NR34_REG                          **** GX
    _NR41_REG                          **** GX
    _NR42_REG                          **** GX
    _NR43_REG                          **** GX
    _NR44_REG                          **** GX
    _NR50_REG                          **** GX
    _NR51_REG                          **** GX
    _NR52_REG                          **** GX
    _OBP0_REG                          **** GX
    _OBP1_REG                          **** GX
    _OCPD_REG                          **** GX
    _OCPS_REG                          **** GX
    _P1_REG                            **** GX
    _RP_REG                            **** GX
    _SB_REG                            **** GX
  0 _SCREEN_HEIGHT                     00E1 GR
  0 _SCREEN_WIDTH                      00DF GR
    _SCX_REG                           **** GX
    _SCY_REG                           **** GX
    _SC_REG                            **** GX
    _STAT_REG                          **** GX
    _SVBK_REG                          **** GX
    _TAC_REG                           **** GX
    _TIMA_REG                          **** GX
    _TMA_REG                           **** GX
  1 _TilePlayer                        0000 GR
    _VBK_REG                           **** GX
    _WX_REG                            **** GX
    _WY_REG                            **** GX
  0 ___keyboard_end                    0110 R
  0 ___keyboard_start                  00E3 R
  0 ___main_end                        00DF R
  0 ___main_start                      0000 R
  0 ___movePlayer_end                  0146 R
  0 ___movePlayer_start                0110 R
    __cpu                              **** GX
    __io_in                            **** GX
    __io_out                           **** GX
    __io_status                        **** GX
    _delay                             **** GX
  1 _gameSpeed                         0030 GR
    _joypad                            **** GX
  0 _keyboard                          00E3 GR
  0 _main                              0000 GR
  0 _movePlayer                        0110 GR
    _move_sprite                       **** GX
    _scroll_sprite                     **** GX
    _set_sprite_data                   **** GX
    _set_sprite_tile                   **** GX
    _sys_time                          **** GX

ASxxxx Assembler V01.75  (GameBoy Z80-like CPU), page 2.

Area Table

   0 _CODE                              size  146   flags 0
   1 _DATA                              size   32   flags 0
   2 _OVERLAY                           size    0   flags 0
   3 _ISEG                              size    0   flags 0
   4 _BSEG                              size    0   flags 0
   5 _XSEG                              size    0   flags 0
   6 _GSINIT                            size  128   flags 0
   7 _GSFINAL                           size    0   flags 0
   8 _HOME                              size    0   flags 0
